target datalayout = "e-m:e-p270:32:32-p271:32:32-p272:64:64-i64:64-i128:128-f80:128-n8:16:32:64-S128"
target triple = "x86_64-pc-linux-gnu"

%struct.nameData = type { [64 x i8] }
%struct.HeapTupleData = type { i32, %struct.ItemPointerData, i32, ptr }
%struct.ItemPointerData = type { %struct.BlockIdData, i16 }
%struct.BlockIdData = type { i16, i16 }
%struct.HeapTupleHeaderData = type { %union.anon.1, %struct.ItemPointerData, i16, i16, i8, [0 x i8] }
%union.anon.1 = type { %struct.HeapTupleFields }
%struct.HeapTupleFields = type { i32, i32, %union.anon.2 }
%union.anon.2 = type { i32 }
%struct.FormData_pg_class = type { i32, %struct.nameData, i32, i32, i32, i32, i32, i32, i32, i32, float, i32, i32, i8, i8, i8, i8, i16, i16, i8, i8, i8, i8, i8, i8, i8, i8, i32, i32, i32 }

@.str.1 = private unnamed_addr constant [9 x i8] c"aclchk.c\00", align 1
@.str.103 = private unnamed_addr constant [36 x i8] c"cache lookup failed for relation %u\00", align 1
@__func__.removeExtObjInitPriv = private unnamed_addr constant [21 x i8] c"removeExtObjInitPriv\00", align 1

; Function Attrs: inlinehint nounwind uwtable
define internal i64 @Int16GetDatum(i16 noundef signext %0) #7 {
  %2 = alloca i16, align 2
  store i16 %0, ptr %2, align 2
  %3 = load i16, ptr %2, align 2
  %4 = sext i16 %3 to i64
  ret i64 %4
}

; Function Attrs: inlinehint nounwind uwtable
define internal ptr @GETSTRUCT(ptr noundef %0) #7 {
  %2 = alloca ptr, align 8
  store ptr %0, ptr %2, align 8
  %3 = load ptr, ptr %2, align 8
  %4 = getelementptr inbounds nuw %struct.HeapTupleData, ptr %3, i32 0, i32 3
  %5 = load ptr, ptr %4, align 8
  %6 = load ptr, ptr %2, align 8
  %7 = getelementptr inbounds nuw %struct.HeapTupleData, ptr %6, i32 0, i32 3
  %8 = load ptr, ptr %7, align 8
  %9 = getelementptr inbounds nuw %struct.HeapTupleHeaderData, ptr %8, i32 0, i32 4
  %10 = load i8, ptr %9, align 2
  %11 = zext i8 %10 to i32
  %12 = sext i32 %11 to i64
  %13 = getelementptr inbounds i8, ptr %5, i64 %12
  ret ptr %13
}

; Function Attrs: inlinehint nounwind uwtable
define internal i64 @ObjectIdGetDatum(i32 noundef %0) #7 {
  %2 = alloca i32, align 4
  store i32 %0, ptr %2, align 4
  %3 = load i32, ptr %2, align 4
  %4 = zext i32 %3 to i64
  ret i64 %4
}

; Function Attrs: nounwind uwtable
define dso_local void @removeExtObjInitPriv(i32 noundef %0, i32 noundef %1) #0 {
  %3 = alloca i32, align 4
  %4 = alloca i32, align 4
  %5 = alloca ptr, align 8
  %6 = alloca ptr, align 8
  %7 = alloca i32, align 4
  %8 = alloca i16, align 2
  %9 = alloca i16, align 2
  %10 = alloca ptr, align 8
  store i32 %0, ptr %3, align 4
  store i32 %1, ptr %4, align 4
  %11 = load i32, ptr %4, align 4
  %12 = icmp eq i32 %11, 1259
  br i1 %12, label %13, label %96

13:                                               ; preds = %2
  call void @llvm.lifetime.start.p0(i64 8, ptr %5) #9
  call void @llvm.lifetime.start.p0(i64 8, ptr %6) #9
  %14 = load i32, ptr %3, align 4
  %15 = call i64 @ObjectIdGetDatum(i32 noundef %14)
  %16 = call ptr @SearchSysCache1(i32 noundef 57, i64 noundef %15)
  store ptr %16, ptr %6, align 8
  %17 = load ptr, ptr %6, align 8
  %18 = icmp ne ptr %17, null
  br i1 %18, label %31, label %19

19:                                               ; preds = %13
  br label %20

20:                                               ; preds = %19
  br i1 true, label %21, label %23

21:                                               ; preds = %20
  %22 = call zeroext i1 @errstart_cold(i32 noundef 21, ptr noundef null) #10
  br i1 %22, label %25, label %28

23:                                               ; preds = %20
  %24 = call zeroext i1 @errstart(i32 noundef 21, ptr noundef null)
  br i1 %24, label %25, label %28

25:                                               ; preds = %23, %21
  %26 = load i32, ptr %3, align 4
  %27 = call i32 (ptr, ...) @errmsg_internal(ptr noundef @.str.103, i32 noundef %26)
  call void @errfinish(ptr noundef @.str.1, i32 noundef 4496, ptr noundef @__func__.removeExtObjInitPriv)
  br label %28

28:                                               ; preds = %25, %23, %21
  unreachable

29:                                               ; No predecessors!
  br label %30

30:                                               ; preds = %29
  br label %31

31:                                               ; preds = %30, %13
  %32 = load ptr, ptr %6, align 8
  %33 = call ptr @GETSTRUCT(ptr noundef %32)
  store ptr %33, ptr %5, align 8
  %34 = load ptr, ptr %5, align 8
  %35 = getelementptr inbounds nuw %struct.FormData_pg_class, ptr %34, i32 0, i32 16
  %36 = load i8, ptr %35, align 1
  %37 = sext i8 %36 to i32
  %38 = icmp eq i32 %37, 105
  br i1 %38, label %51, label %39

39:                                               ; preds = %31
  %40 = load ptr, ptr %5, align 8
  %41 = getelementptr inbounds nuw %struct.FormData_pg_class, ptr %40, i32 0, i32 16
  %42 = load i8, ptr %41, align 1
  %43 = sext i8 %42 to i32
  %44 = icmp eq i32 %43, 73
  br i1 %44, label %51, label %45

45:                                               ; preds = %39
  %46 = load ptr, ptr %5, align 8
  %47 = getelementptr inbounds nuw %struct.FormData_pg_class, ptr %46, i32 0, i32 16
  %48 = load i8, ptr %47, align 1
  %49 = sext i8 %48 to i32
  %50 = icmp eq i32 %49, 99
  br i1 %50, label %51, label %53

51:                                               ; preds = %45, %39, %31
  %52 = load ptr, ptr %6, align 8
  call void @ReleaseSysCache(ptr noundef %52)
  store i32 1, ptr %7, align 4
  br label %93

53:                                               ; preds = %45
  %54 = load ptr, ptr %5, align 8
  %55 = getelementptr inbounds nuw %struct.FormData_pg_class, ptr %54, i32 0, i32 16
  %56 = load i8, ptr %55, align 1
  %57 = sext i8 %56 to i32
  %58 = icmp ne i32 %57, 83
  br i1 %58, label %59, label %91

59:                                               ; preds = %53
  call void @llvm.lifetime.start.p0(i64 2, ptr %8) #9
  call void @llvm.lifetime.start.p0(i64 2, ptr %9) #9
  %60 = load ptr, ptr %5, align 8
  %61 = getelementptr inbounds nuw %struct.FormData_pg_class, ptr %60, i32 0, i32 17
  %62 = load i16, ptr %61, align 4
  store i16 %62, ptr %9, align 2
  store i16 1, ptr %8, align 2
  br label %63

63:                                               ; preds = %87, %59
  %64 = load i16, ptr %8, align 2
  %65 = sext i16 %64 to i32
  %66 = load i16, ptr %9, align 2
  %67 = sext i16 %66 to i32
  %68 = icmp sle i32 %65, %67
  br i1 %68, label %69, label %90

69:                                               ; preds = %63
  call void @llvm.lifetime.start.p0(i64 8, ptr %10) #9
  %70 = load i32, ptr %3, align 4
  %71 = call i64 @ObjectIdGetDatum(i32 noundef %70)
  %72 = load i16, ptr %8, align 2
  %73 = call i64 @Int16GetDatum(i16 noundef signext %72)
  %74 = call ptr @SearchSysCache2(i32 noundef 7, i64 noundef %71, i64 noundef %73)
  store ptr %74, ptr %10, align 8
  %75 = load ptr, ptr %10, align 8
  %76 = icmp ne ptr %75, null
  br i1 %76, label %78, label %77

77:                                               ; preds = %69
  store i32 6, ptr %7, align 4
  br label %84

78:                                               ; preds = %69
  %79 = load i32, ptr %3, align 4
  %80 = load i32, ptr %4, align 4
  %81 = load i16, ptr %8, align 2
  %82 = sext i16 %81 to i32
  call void @recordExtensionInitPrivWorker(i32 noundef %79, i32 noundef %80, i32 noundef %82, ptr noundef null)
  %83 = load ptr, ptr %10, align 8
  call void @ReleaseSysCache(ptr noundef %83)
  store i32 0, ptr %7, align 4
  br label %84

84:                                               ; preds = %78, %77
  call void @llvm.lifetime.end.p0(i64 8, ptr %10) #9
  %85 = load i32, ptr %7, align 4
  switch i32 %85, label %100 [
    i32 0, label %86
    i32 6, label %87
  ]

86:                                               ; preds = %84
  br label %87

87:                                               ; preds = %86, %84
  %88 = load i16, ptr %8, align 2
  %89 = add i16 %88, 1
  store i16 %89, ptr %8, align 2
  br label %63, !llvm.loop !22

90:                                               ; preds = %63
  call void @llvm.lifetime.end.p0(i64 2, ptr %9) #9
  call void @llvm.lifetime.end.p0(i64 2, ptr %8) #9
  br label %91

91:                                               ; preds = %90, %53
  %92 = load ptr, ptr %6, align 8
  call void @ReleaseSysCache(ptr noundef %92)
  store i32 0, ptr %7, align 4
  br label %93

93:                                               ; preds = %91, %51
  call void @llvm.lifetime.end.p0(i64 8, ptr %6) #9
  call void @llvm.lifetime.end.p0(i64 8, ptr %5) #9
  %94 = load i32, ptr %7, align 4
  switch i32 %94, label %100 [
    i32 0, label %95
    i32 1, label %99
  ]

95:                                               ; preds = %93
  br label %96

96:                                               ; preds = %95, %2
  %97 = load i32, ptr %3, align 4
  %98 = load i32, ptr %4, align 4
  call void @recordExtensionInitPrivWorker(i32 noundef %97, i32 noundef %98, i32 noundef 0, ptr noundef null)
  br label %99

99:                                               ; preds = %96, %93
  ret void

100:                                              ; preds = %93, %84
  unreachable
}