; Function Attrs: nounwind uwtable
define dso_local void @removeExtObjInitPriv(i32 noundef %0, i32 noundef %1) local_unnamed_addr #0 {
  %3 = icmp eq i32 %1, 1259
  br i1 %3, label %4, label %.split

.split:                                           ; preds = %2
  tail call fastcc void @recordExtensionInitPrivWorker(i32 noundef %0, i32 noundef %1, i32 noundef 0, ptr noundef null)
  br label %29

4:                                                ; preds = %2
  %5 = zext i32 %0 to i64
  %6 = tail call ptr @SearchSysCache1(i32 noundef 57, i64 noundef %5) #9
  %.not = icmp eq ptr %6, null
  br i1 %.not, label %7, label %10

7:                                                ; preds = %4
  %8 = tail call zeroext i1 @errstart_cold(i32 noundef 21, ptr noundef null) #10
  tail call void @llvm.assume(i1 %8)
  %9 = tail call i32 (ptr, ...) @errmsg_internal(ptr noundef nonnull @.str.103, i32 noundef %0) #9
  tail call void @errfinish(ptr noundef nonnull @.str.1, i32 noundef 4496, ptr noundef nonnull @__func__.removeExtObjInitPriv) #9
  unreachable

10:                                               ; preds = %4
  %11 = getelementptr i8, ptr %6, i64 16
  %.val = load ptr, ptr %11, align 8
  %12 = getelementptr inbounds nuw i8, ptr %.val, i64 22
  %13 = load i8, ptr %12, align 2
  %14 = zext i8 %13 to i64
  %15 = getelementptr inbounds nuw i8, ptr %.val, i64 %14
  %16 = getelementptr inbounds nuw i8, ptr %15, i64 115
  %17 = load i8, ptr %16, align 1
  switch i8 %17, label %18 [
    i8 105, label %28
    i8 73, label %28
    i8 99, label %28
    i8 83, label %.split25
  ]

18:                                               ; preds = %10
  %19 = getelementptr inbounds nuw i8, ptr %15, i64 116
  %20 = load i16, ptr %19, align 4
  %.not3236 = icmp slt i16 %20, 1
  br i1 %.not3236, label %.split25, label %.lr.ph

.lr.ph:                                           ; preds = %18, %25
  %21 = phi i32 [ %27, %25 ], [ 1, %18 ]
  %.02437 = phi i16 [ %26, %25 ], [ 1, %18 ]
  %22 = sext i16 %.02437 to i64
  %23 = tail call ptr @SearchSysCache2(i32 noundef 7, i64 noundef %5, i64 noundef %22) #9
  %.not33 = icmp eq ptr %23, null
  br i1 %.not33, label %25, label %24

24:                                               ; preds = %.lr.ph
  tail call fastcc void @recordExtensionInitPrivWorker(i32 noundef %0, i32 noundef 1259, i32 noundef %21, ptr noundef null)
  tail call void @ReleaseSysCache(ptr noundef nonnull %23) #9
  br label %25

25:                                               ; preds = %.lr.ph, %24
  %26 = add i16 %.02437, 1
  %27 = sext i16 %26 to i32
  %.not32 = icmp sgt i16 %26, %20
  br i1 %.not32, label %.split25, label %.lr.ph, !llvm.loop !16

28:                                               ; preds = %10, %10, %10
  tail call void @ReleaseSysCache(ptr noundef nonnull %6) #9
  br label %29

.split25:                                         ; preds = %25, %18, %10
  tail call void @ReleaseSysCache(ptr noundef nonnull %6) #9
  tail call fastcc void @recordExtensionInitPrivWorker(i32 noundef %0, i32 noundef 1259, i32 noundef 0, ptr noundef null)
  br label %29

29:                                               ; preds = %28, %.split, %.split25
  ret void
}